target datalayout = "e-m:e-p270:32:32-p271:32:32-p272:64:64-i64:64-i128:128-f80:128-n8:16:32:64-S128"
target triple = "x86_64-pc-linux-gnu"

%"class.Json::ValueConstIterator" = type { %"class.Json::ValueIteratorBase.base", [7 x i8] }
%"class.Json::ValueIteratorBase.base" = type <{ %"struct.std::_Rb_tree_iterator.363", i8 }>
%"struct.std::_Rb_tree_iterator.363" = type { ptr }

; Function Attrs: mustprogress uwtable
define linkonce_odr dso_local noundef nonnull align 8 dereferenceable(9) ptr @_ZN4Json18ValueConstIteratorppEv(ptr noundef nonnull align 8 dereferenceable(9) %0) #5 comdat align 2 {
  %2 = alloca ptr, align 8
  store ptr %0, ptr %2, align 8, !tbaa !262
  %3 = load ptr, ptr %2, align 8
  call void @_ZN4Json17ValueIteratorBase9incrementEv(ptr noundef nonnull align 8 dereferenceable(9) %3)
  ret ptr %3
}

; Function Attrs: mustprogress uwtable
define linkonce_odr dso_local noundef nonnull align 8 dereferenceable(40) ptr @_ZNK4Json18ValueConstIteratordeEv(ptr noundef nonnull align 8 dereferenceable(9) %0) #5 comdat align 2 {
  %2 = alloca ptr, align 8
  store ptr %0, ptr %2, align 8, !tbaa !262
  %3 = load ptr, ptr %2, align 8
  %4 = call noundef nonnull align 8 dereferenceable(40) ptr @_ZNK4Json17ValueIteratorBase5derefEv(ptr noundef nonnull align 8 dereferenceable(9) %3)
  ret ptr %4
}

; Function Attrs: mustprogress uwtable
define linkonce_odr dso_local noundef zeroext i1 @_ZNK4Json17ValueIteratorBaseneERKS0_(ptr noundef nonnull align 8 dereferenceable(9) %0, ptr noundef nonnull align 8 dereferenceable(9) %1) #5 comdat align 2 {
  %3 = alloca ptr, align 8
  %4 = alloca ptr, align 8
  store ptr %0, ptr %3, align 8, !tbaa !260
  store ptr %1, ptr %4, align 8, !tbaa !260
  %5 = load ptr, ptr %3, align 8
  %6 = load ptr, ptr %4, align 8, !tbaa !260
  %7 = call noundef zeroext i1 @_ZNK4Json17ValueIteratorBase7isEqualERKS0_(ptr noundef nonnull align 8 dereferenceable(9) %5, ptr noundef nonnull align 8 dereferenceable(9) %6)
  %8 = xor i1 %7, true
  ret i1 %8
}

; Function Attrs: mustprogress uwtable
define dso_local noundef zeroext i1 @_ZN9cmFileAPI19ReadRequestVersionsERKN4Json5ValueERSt6vectorINS_14RequestVersionESaIS5_EERNSt7__cxx1112basic_stringIcSt11char_traitsIcESaIcEEE(ptr noundef nonnull align 8 dereferenceable(40) %0, ptr noundef nonnull align 8 dereferenceable(24) %1, ptr noundef nonnull align 8 dereferenceable(32) %2) #5 align 2 {
  %4 = alloca i1, align 1
  %5 = alloca ptr, align 8
  %6 = alloca ptr, align 8
  %7 = alloca ptr, align 8
  %8 = alloca ptr, align 8
  %9 = alloca %"class.Json::ValueConstIterator", align 8
  %10 = alloca { ptr, i8 }, align 8
  %11 = alloca %"class.Json::ValueConstIterator", align 8
  %12 = alloca { ptr, i8 }, align 8
  %13 = alloca i32, align 4
  %14 = alloca ptr, align 8
  store ptr %0, ptr %5, align 8, !tbaa !173
  store ptr %1, ptr %6, align 8, !tbaa !264
  store ptr %2, ptr %7, align 8, !tbaa !18
  %15 = load ptr, ptr %5, align 8, !tbaa !173
  %16 = call noundef zeroext i1 @_ZNK4Json5Value7isArrayEv(ptr noundef nonnull align 8 dereferenceable(40) %15)
  br i1 %16, label %17, label %42

17:                                               ; preds = %3
  call void @llvm.lifetime.start.p0(i64 8, ptr %8) #3
  %18 = load ptr, ptr %5, align 8, !tbaa !173
  store ptr %18, ptr %8, align 8, !tbaa !173
  call void @llvm.lifetime.start.p0(i64 16, ptr %9) #3
  %19 = load ptr, ptr %8, align 8, !tbaa !173
  %20 = call { ptr, i8 } @_ZNK4Json5Value5beginEv(ptr noundef nonnull align 8 dereferenceable(40) %19)
  store { ptr, i8 } %20, ptr %10, align 8
  call void @llvm.memcpy.p0.p0.i64(ptr align 8 %9, ptr align 8 %10, i64 9, i1 false)
  call void @llvm.lifetime.start.p0(i64 16, ptr %11) #3
  %21 = load ptr, ptr %8, align 8, !tbaa !173
  %22 = call { ptr, i8 } @_ZNK4Json5Value3endEv(ptr noundef nonnull align 8 dereferenceable(40) %21)
  store { ptr, i8 } %22, ptr %12, align 8
  call void @llvm.memcpy.p0.p0.i64(ptr align 8 %11, ptr align 8 %12, i64 9, i1 false)
  br label %23

23:                                               ; preds = %37, %17
  %24 = call noundef zeroext i1 @_ZNK4Json17ValueIteratorBaseneERKS0_(ptr noundef nonnull align 8 dereferenceable(9) %9, ptr noundef nonnull align 8 dereferenceable(9) %11)
  br i1 %24, label %26, label %25

25:                                               ; preds = %23
  store i32 2, ptr %13, align 4
  br label %39

26:                                               ; preds = %23
  call void @llvm.lifetime.start.p0(i64 8, ptr %14) #3
  %27 = call noundef nonnull align 8 dereferenceable(40) ptr @_ZNK4Json18ValueConstIteratordeEv(ptr noundef nonnull align 8 dereferenceable(9) %9)
  store ptr %27, ptr %14, align 8, !tbaa !173
  %28 = load ptr, ptr %14, align 8, !tbaa !173
  %29 = load ptr, ptr %6, align 8, !tbaa !264
  %30 = load ptr, ptr %7, align 8, !tbaa !18
  %31 = call noundef zeroext i1 @_ZN9cmFileAPI18ReadRequestVersionERKN4Json5ValueEbRSt6vectorINS_14RequestVersionESaIS5_EERNSt7__cxx1112basic_stringIcSt11char_traitsIcESaIcEEE(ptr noundef nonnull align 8 dereferenceable(40) %28, i1 noundef zeroext true, ptr noundef nonnull align 8 dereferenceable(24) %29, ptr noundef nonnull align 8 dereferenceable(32) %30)
  br i1 %31, label %33, label %32

32:                                               ; preds = %26
  store i1 false, ptr %4, align 1
  store i32 1, ptr %13, align 4
  br label %34

33:                                               ; preds = %26
  store i32 0, ptr %13, align 4
  br label %34

34:                                               ; preds = %33, %32
  call void @llvm.lifetime.end.p0(i64 8, ptr %14) #3
  %35 = load i32, ptr %13, align 4
  switch i32 %35, label %39 [
    i32 0, label %36
  ]

36:                                               ; preds = %34
  br label %37

37:                                               ; preds = %36
  %38 = call noundef nonnull align 8 dereferenceable(9) ptr @_ZN4Json18ValueConstIteratorppEv(ptr noundef nonnull align 8 dereferenceable(9) %9)
  br label %23

39:                                               ; preds = %34, %25
  call void @llvm.lifetime.end.p0(i64 16, ptr %11) #3
  call void @llvm.lifetime.end.p0(i64 16, ptr %9) #3
  call void @llvm.lifetime.end.p0(i64 8, ptr %8) #3
  %40 = load i32, ptr %13, align 4
  switch i32 %40, label %52 [
    i32 2, label %41
    i32 1, label %50
  ]

41:                                               ; preds = %39
  br label %49

42:                                               ; preds = %3
  %43 = load ptr, ptr %5, align 8, !tbaa !173
  %44 = load ptr, ptr %6, align 8, !tbaa !264
  %45 = load ptr, ptr %7, align 8, !tbaa !18
  %46 = call noundef zeroext i1 @_ZN9cmFileAPI18ReadRequestVersionERKN4Json5ValueEbRSt6vectorINS_14RequestVersionESaIS5_EERNSt7__cxx1112basic_stringIcSt11char_traitsIcESaIcEEE(ptr noundef nonnull align 8 dereferenceable(40) %43, i1 noundef zeroext false, ptr noundef nonnull align 8 dereferenceable(24) %44, ptr noundef nonnull align 8 dereferenceable(32) %45)
  br i1 %46, label %48, label %47

47:                                               ; preds = %42
  store i1 false, ptr %4, align 1
  br label %50

48:                                               ; preds = %42
  br label %49

49:                                               ; preds = %48, %41
  store i1 true, ptr %4, align 1
  br label %50

50:                                               ; preds = %49, %47, %39
  %51 = load i1, ptr %4, align 1
  ret i1 %51

52:                                               ; preds = %39
  unreachable
}