; Function Attrs: mustprogress uwtable
define dso_local noundef zeroext i1 @_ZN9cmFileAPI19ReadRequestVersionsERKN4Json5ValueERSt6vectorINS_14RequestVersionESaIS5_EERNSt7__cxx1112basic_stringIcSt11char_traitsIcESaIcEEE(ptr noundef nonnull align 8 dereferenceable(40) %0, ptr noundef nonnull align 8 captures(none) dereferenceable(24) %1, ptr noundef nonnull align 8 dereferenceable(32) %2) local_unnamed_addr #5 align 2 {
  %4 = alloca %"class.Json::ValueConstIterator", align 8
  %5 = alloca %"class.Json::ValueConstIterator", align 8
  %6 = tail call noundef zeroext i1 @_ZNK4Json5Value7isArrayEv(ptr noundef nonnull align 8 dereferenceable(40) %0)
  br i1 %6, label %7, label %16

7:                                                ; preds = %3
  call void @llvm.lifetime.start.p0(i64 16, ptr nonnull %4) #24
  %8 = tail call { ptr, i8 } @_ZNK4Json5Value5beginEv(ptr noundef nonnull align 8 dereferenceable(40) %0)
  %.fca.0.extract2 = extractvalue { ptr, i8 } %8, 0
  %.fca.1.extract3 = extractvalue { ptr, i8 } %8, 1
  store ptr %.fca.0.extract2, ptr %4, align 8
  %.sroa.25.0..sroa_idx = getelementptr inbounds nuw i8, ptr %4, i64 8
  store i8 %.fca.1.extract3, ptr %.sroa.25.0..sroa_idx, align 8
  call void @llvm.lifetime.start.p0(i64 16, ptr nonnull %5) #24
  %9 = tail call { ptr, i8 } @_ZNK4Json5Value3endEv(ptr noundef nonnull align 8 dereferenceable(40) %0)
  %.fca.0.extract = extractvalue { ptr, i8 } %9, 0
  %.fca.1.extract = extractvalue { ptr, i8 } %9, 1
  store ptr %.fca.0.extract, ptr %5, align 8
  %.sroa.2.0..sroa_idx = getelementptr inbounds nuw i8, ptr %5, i64 8
  store i8 %.fca.1.extract, ptr %.sroa.2.0..sroa_idx, align 8
  %10 = call noundef zeroext i1 @_ZNK4Json17ValueIteratorBase7isEqualERKS0_(ptr noundef nonnull align 8 dereferenceable(9) %4, ptr noundef nonnull align 8 dereferenceable(9) %5)
  br i1 %10, label %.thread, label %.lr.ph

.thread:                                          ; preds = %13, %7
  call void @llvm.lifetime.end.p0(i64 16, ptr nonnull %5) #24
  call void @llvm.lifetime.end.p0(i64 16, ptr nonnull %4) #24
  br label %18

.lr.ph:                                           ; preds = %7, %13
  %11 = call noundef nonnull align 8 dereferenceable(40) ptr @_ZNK4Json17ValueIteratorBase5derefEv(ptr noundef nonnull align 8 dereferenceable(9) %4)
  %12 = call noundef zeroext i1 @_ZN9cmFileAPI18ReadRequestVersionERKN4Json5ValueEbRSt6vectorINS_14RequestVersionESaIS5_EERNSt7__cxx1112basic_stringIcSt11char_traitsIcESaIcEEE(ptr noundef nonnull align 8 dereferenceable(40) %11, i1 noundef zeroext true, ptr noundef nonnull align 8 dereferenceable(24) %1, ptr noundef nonnull align 8 dereferenceable(32) %2)
  br i1 %12, label %13, label %15

13:                                               ; preds = %.lr.ph
  call void @_ZN4Json17ValueIteratorBase9incrementEv(ptr noundef nonnull align 8 dereferenceable(9) %4)
  %14 = call noundef zeroext i1 @_ZNK4Json17ValueIteratorBase7isEqualERKS0_(ptr noundef nonnull align 8 dereferenceable(9) %4, ptr noundef nonnull align 8 dereferenceable(9) %5)
  br i1 %14, label %.thread, label %.lr.ph

15:                                               ; preds = %.lr.ph
  call void @llvm.lifetime.end.p0(i64 16, ptr nonnull %5) #24
  call void @llvm.lifetime.end.p0(i64 16, ptr nonnull %4) #24
  br label %19

16:                                               ; preds = %3
  %17 = tail call noundef zeroext i1 @_ZN9cmFileAPI18ReadRequestVersionERKN4Json5ValueEbRSt6vectorINS_14RequestVersionESaIS5_EERNSt7__cxx1112basic_stringIcSt11char_traitsIcESaIcEEE(ptr noundef nonnull align 8 dereferenceable(40) %0, i1 noundef zeroext false, ptr noundef nonnull align 8 dereferenceable(24) %1, ptr noundef nonnull align 8 dereferenceable(32) %2)
  br i1 %17, label %18, label %19

18:                                               ; preds = %.thread, %16
  br label %19

19:                                               ; preds = %15, %16, %18
  %.3 = phi i1 [ false, %15 ], [ true, %18 ], [ false, %16 ]
  ret i1 %.3
}